Certificate:
    Data:
        Version: 3 (0x2)
        Serial Number:
            d1:d9:b9:7f:ef:ca:71:04
        Signature Algorithm: sha1WithRSAEncryption
        Issuer: C=VI, ST=HN, L=HN, O=Dynabyte, OU=Dynabyte, CN=1bid.vn/emailAddress=minhnhan@dynabyte.vn
        Validity
            Not Before: Jan 25 08:53:41 2011 GMT
            Not After : Jan 24 08:53:41 2014 GMT
        Subject: C=VI, ST=HN, L=HN, O=Dynabyte, OU=Dynabyte, CN=1bid.vn/emailAddress=minhnhan@dynabyte.vn
        Subject Public Key Info:
            Public Key Algorithm: rsaEncryption
            RSA Public Key: (1024 bit)
                Modulus (1024 bit):
                    00:b4:9d:5c:8b:ed:28:bc:95:c3:f4:e7:87:53:8b:
                    24:2c:c2:58:58:c3:b6:e0:7d:bf:da:9e:90:68:75:
                    f3:c6:b0:62:ee:8a:9b:7e:23:0f:20:2b:6a:a8:79:
                    df:86:30:4f:cf:4f:a7:42:aa:96:b3:67:61:f9:70:
                    b2:ec:a5:e4:37:49:84:1a:36:49:14:11:39:3f:19:
                    89:88:49:58:df:20:dd:f2:4b:5f:76:19:b4:62:72:
                    d0:f1:b0:e1:94:40:fd:cc:09:df:f7:58:16:a3:fe:
                    64:c3:28:bf:0f:79:5c:27:d9:ed:f1:8e:f9:ad:bb:
                    58:60:73:6d:de:4d:67:13:bb
                Exponent: 65537 (0x10001)
        X509v3 extensions:
            X509v3 Subject Key Identifier: 
                2C:CC:BC:D9:27:F9:53:60:BE:8E:A3:25:70:38:E3:A7:2E:DC:A7:43
            X509v3 Authority Key Identifier: 
                keyid:2C:CC:BC:D9:27:F9:53:60:BE:8E:A3:25:70:38:E3:A7:2E:DC:A7:43
                DirName:/C=VI/ST=HN/L=HN/O=Dynabyte/OU=Dynabyte/CN=1bid.vn/emailAddress=minhnhan@dynabyte.vn
                serial:D1:D9:B9:7F:EF:CA:71:04

            X509v3 Basic Constraints: 
                CA:TRUE
    Signature Algorithm: sha1WithRSAEncryption
        45:42:47:ce:17:27:cc:59:88:8a:8d:3c:29:ac:a3:d1:62:b2:
        c9:1e:ca:72:75:73:90:a0:ec:4a:98:d9:de:70:d3:1c:1b:82:
        74:e1:e0:7f:f7:58:c8:7c:d5:d7:e0:e0:66:2a:8b:c1:9f:9c:
        96:16:dc:ab:7b:2b:67:68:6f:06:11:d0:1e:a0:48:c8:9c:48:
        4a:50:6d:46:45:f3:2f:b4:9c:ec:2a:18:72:13:1b:44:fe:0b:
        88:53:0c:04:85:2d:2f:32:44:ec:d2:03:b9:97:5f:be:79:53:
        76:db:a8:47:74:c6:f7:06:3b:ba:8d:bf:ed:44:24:30:b4:19:
        79:e6
-----BEGIN CERTIFICATE-----
MIIDdTCCAt6gAwIBAgIJANHZuX/vynEEMA0GCSqGSIb3DQEBBQUAMIGEMQswCQYD
VQQGEwJWSTELMAkGA1UECBMCSE4xCzAJBgNVBAcTAkhOMREwDwYDVQQKEwhEeW5h
Ynl0ZTERMA8GA1UECxMIRHluYWJ5dGUxEDAOBgNVBAMTBzFiaWQudm4xIzAhBgkq
hkiG9w0BCQEWFG1pbmhuaGFuQGR5bmFieXRlLnZuMB4XDTExMDEyNTA4NTM0MVoX
DTE0MDEyNDA4NTM0MVowgYQxCzAJBgNVBAYTAlZJMQswCQYDVQQIEwJITjELMAkG
A1UEBxMCSE4xETAPBgNVBAoTCER5bmFieXRlMREwDwYDVQQLEwhEeW5hYnl0ZTEQ
MA4GA1UEAxMHMWJpZC52bjEjMCEGCSqGSIb3DQEJARYUbWluaG5oYW5AZHluYWJ5
dGUudm4wgZ8wDQYJKoZIhvcNAQEBBQADgY0AMIGJAoGBALSdXIvtKLyVw/Tnh1OL
JCzCWFjDtuB9v9qekGh188awYu6Km34jDyAraqh534YwT89Pp0KqlrNnYflwsuyl
5DdJhBo2SRQROT8ZiYhJWN8g3fJLX3YZtGJy0PGw4ZRA/cwJ3/dYFqP+ZMMovw95
XCfZ7fGO+a27WGBzbd5NZxO7AgMBAAGjgewwgekwHQYDVR0OBBYEFCzMvNkn+VNg
vo6jJXA446cu3KdDMIG5BgNVHSMEgbEwga6AFCzMvNkn+VNgvo6jJXA446cu3KdD
oYGKpIGHMIGEMQswCQYDVQQGEwJWSTELMAkGA1UECBMCSE4xCzAJBgNVBAcTAkhO
MREwDwYDVQQKEwhEeW5hYnl0ZTERMA8GA1UECxMIRHluYWJ5dGUxEDAOBgNVBAMT
BzFiaWQudm4xIzAhBgkqhkiG9w0BCQEWFG1pbmhuaGFuQGR5bmFieXRlLnZuggkA
0dm5f+/KcQQwDAYDVR0TBAUwAwEB/zANBgkqhkiG9w0BAQUFAAOBgQBFQkfOFyfM
WYiKjTwprKPRYrLJHspydXOQoOxKmNnecNMcG4J04eB/91jIfNXX4OBmKovBn5yW
FtyreytnaG8GEdAeoEjInEhKUG1GRfMvtJzsKhhyExtE/guIUwwEhS0vMkTs0gO5
l1++eVN226hHdMb3Bju6jb/tRCQwtBl55g==
-----END CERTIFICATE-----
